target datalayout = "e-m:e-p270:32:32-p271:32:32-p272:64:64-i64:64-i128:128-f80:128-n8:16:32:64-S128"
target triple = "x86_64-pc-linux-gnu"

%struct.WebPIDecoder = type { i32, %struct.WebPDecParams, i32, ptr, %struct.VP8Io, %struct.MemBuffer, %struct.WebPDecBuffer, ptr, i64, i32 }
%struct.WebPDecParams = type { ptr, ptr, ptr, ptr, i32, ptr, ptr, ptr, ptr, ptr, ptr, ptr, ptr, ptr }
%struct.VP8Io = type { i32, i32, i32, i32, i32, ptr, ptr, ptr, i32, i32, ptr, ptr, ptr, ptr, i32, i64, ptr, i32, i32, i32, i32, i32, i32, i32, i32, i32, ptr }
%struct.MemBuffer = type { i32, i64, i64, i64, ptr, i64, ptr }
%struct.WebPDecBuffer = type { i32, i32, i32, i32, %union.anon, [4 x i32], ptr }
%union.anon = type { %struct.WebPYUVABuffer }
%struct.WebPYUVABuffer = type { ptr, ptr, ptr, ptr, i32, i32, i32, i32, i64, i64, i64, i64 }

; Function Attrs: nounwind uwtable
define hidden i32 @WebPISetIOHooks(ptr noundef %0, ptr noundef %1, ptr noundef %2, ptr noundef %3, ptr noundef %4) #0 {
  %6 = alloca i32, align 4
  %7 = alloca ptr, align 8
  %8 = alloca ptr, align 8
  %9 = alloca ptr, align 8
  %10 = alloca ptr, align 8
  %11 = alloca ptr, align 8
  store ptr %0, ptr %7, align 8, !tbaa !10
  store ptr %1, ptr %8, align 8, !tbaa !35
  store ptr %2, ptr %9, align 8, !tbaa !35
  store ptr %3, ptr %10, align 8, !tbaa !35
  store ptr %4, ptr %11, align 8, !tbaa !35
  %12 = load ptr, ptr %7, align 8, !tbaa !10
  %13 = icmp eq ptr %12, null
  br i1 %13, label %19, label %14

14:                                               ; preds = %5
  %15 = load ptr, ptr %7, align 8, !tbaa !10
  %16 = getelementptr inbounds nuw %struct.WebPIDecoder, ptr %15, i32 0, i32 0
  %17 = load i32, ptr %16, align 8, !tbaa !12
  %18 = icmp ugt i32 %17, 0
  br i1 %18, label %19, label %20

19:                                               ; preds = %14, %5
  store i32 0, ptr %6, align 4
  br label %37

20:                                               ; preds = %14
  %21 = load ptr, ptr %8, align 8, !tbaa !35
  %22 = load ptr, ptr %7, align 8, !tbaa !10
  %23 = getelementptr inbounds nuw %struct.WebPIDecoder, ptr %22, i32 0, i32 4
  %24 = getelementptr inbounds nuw %struct.VP8Io, ptr %23, i32 0, i32 11
  store ptr %21, ptr %24, align 8, !tbaa !68
  %25 = load ptr, ptr %9, align 8, !tbaa !35
  %26 = load ptr, ptr %7, align 8, !tbaa !10
  %27 = getelementptr inbounds nuw %struct.WebPIDecoder, ptr %26, i32 0, i32 4
  %28 = getelementptr inbounds nuw %struct.VP8Io, ptr %27, i32 0, i32 12
  store ptr %25, ptr %28, align 8, !tbaa !69
  %29 = load ptr, ptr %10, align 8, !tbaa !35
  %30 = load ptr, ptr %7, align 8, !tbaa !10
  %31 = getelementptr inbounds nuw %struct.WebPIDecoder, ptr %30, i32 0, i32 4
  %32 = getelementptr inbounds nuw %struct.VP8Io, ptr %31, i32 0, i32 13
  store ptr %29, ptr %32, align 8, !tbaa !70
  %33 = load ptr, ptr %11, align 8, !tbaa !35
  %34 = load ptr, ptr %7, align 8, !tbaa !10
  %35 = getelementptr inbounds nuw %struct.WebPIDecoder, ptr %34, i32 0, i32 4
  %36 = getelementptr inbounds nuw %struct.VP8Io, ptr %35, i32 0, i32 10
  store ptr %33, ptr %36, align 8, !tbaa !71
  store i32 1, ptr %6, align 4
  br label %37

37:                                               ; preds = %20, %19
  %38 = load i32, ptr %6, align 4
  ret i32 %38
}