; Function Attrs: mustprogress nofree norecurse nosync nounwind willreturn memory(argmem: readwrite) uwtable
define hidden range(i32 0, 2) i32 @WebPISetIOHooks(ptr noundef captures(address_is_null) %0, ptr noundef %1, ptr noundef %2, ptr noundef %3, ptr noundef %4) local_unnamed_addr #5 {
  %6 = icmp eq ptr %0, null
  br i1 %6, label %14, label %7

7:                                                ; preds = %5
  %8 = load i32, ptr %0, align 8, !tbaa !3
  %.not = icmp eq i32 %8, 0
  br i1 %.not, label %9, label %14

9:                                                ; preds = %7
  %10 = getelementptr inbounds nuw i8, ptr %0, i64 200
  store ptr %1, ptr %10, align 8, !tbaa !107
  %11 = getelementptr inbounds nuw i8, ptr %0, i64 208
  store ptr %2, ptr %11, align 8, !tbaa !108
  %12 = getelementptr inbounds nuw i8, ptr %0, i64 216
  store ptr %3, ptr %12, align 8, !tbaa !109
  %13 = getelementptr inbounds nuw i8, ptr %0, i64 192
  store ptr %4, ptr %13, align 8, !tbaa !110
  br label %14

14:                                               ; preds = %5, %7, %9
  %.0 = phi i32 [ 1, %9 ], [ 0, %7 ], [ 0, %5 ]
  ret i32 %.0
}